target datalayout = "e-m:e-p270:32:32-p271:32:32-p272:64:64-i64:64-i128:128-f80:128-n8:16:32:64-S128"
target triple = "x86_64-pc-linux-gnu"

%"class.cv::bioinspired::BasicRetinaFilter" = type { %"class.cv::bioinspired::TemplateBuffer", %"class.std::valarray", i32, i32, %"class.std::valarray", %"class.std::valarray", %"class.std::valarray", float, float, float, float, float, float, float, float }
%"class.cv::bioinspired::TemplateBuffer" = type { ptr, %"class.std::valarray", i64, i64, i64, i64, i64 }
%"class.std::valarray" = type { i64, ptr }

; Function Attrs: inlinehint mustprogress nounwind uwtable
define linkonce_odr hidden noundef i32 @_ZN2cv11bioinspired14TemplateBufferIfE12getNBcolumnsEv(ptr noundef nonnull align 8 dereferenceable(64) %0) #6 comdat align 2 {
  %2 = alloca ptr, align 8
  store ptr %0, ptr %2, align 8, !tbaa !23
  %3 = load ptr, ptr %2, align 8
  %4 = getelementptr inbounds nuw %"class.cv::bioinspired::TemplateBuffer", ptr %3, i32 0, i32 3
  %5 = load i64, ptr %4, align 8, !tbaa !30
  %6 = trunc i64 %5 to i32
  ret i32 %6
}

; Function Attrs: mustprogress uwtable
define hidden void @_ZN2cv11bioinspired17BasicRetinaFilter23_horizontalCausalFilterEPfjj(ptr noundef nonnull align 8 dereferenceable(168) %0, ptr noundef %1, i32 noundef %2, i32 noundef %3) #4 align 2 {
  %5 = alloca ptr, align 8
  %6 = alloca ptr, align 8
  %7 = alloca i32, align 4
  %8 = alloca i32, align 4
  %9 = alloca i32, align 4
  %10 = alloca i32, align 4
  %11 = alloca ptr, align 8
  %12 = alloca float, align 4
  %13 = alloca i32, align 4
  store ptr %0, ptr %5, align 8, !tbaa !3
  store ptr %1, ptr %6, align 8, !tbaa !49
  store i32 %2, ptr %7, align 4, !tbaa !8
  store i32 %3, ptr %8, align 4, !tbaa !8
  %14 = load ptr, ptr %5, align 8
  call void @llvm.lifetime.start.p0(i64 4, ptr %9) #3
  %15 = load i32, ptr %7, align 4, !tbaa !8
  store i32 %15, ptr %9, align 4, !tbaa !8
  br label %16

16:                                               ; preds = %51, %4
  %17 = load i32, ptr %9, align 4, !tbaa !8
  %18 = load i32, ptr %8, align 4, !tbaa !8
  %19 = icmp ult i32 %17, %18
  br i1 %19, label %21, label %20

20:                                               ; preds = %16
  store i32 2, ptr %10, align 4
  call void @llvm.lifetime.end.p0(i64 4, ptr %9) #3
  br label %54

21:                                               ; preds = %16
  call void @llvm.lifetime.start.p0(i64 8, ptr %11) #3
  %22 = load ptr, ptr %6, align 8, !tbaa !49
  %23 = load i32, ptr %7, align 4, !tbaa !8
  %24 = load i32, ptr %9, align 4, !tbaa !8
  %25 = add i32 %23, %24
  %26 = getelementptr inbounds nuw %"class.cv::bioinspired::BasicRetinaFilter", ptr %14, i32 0, i32 0
  %27 = call noundef i32 @_ZN2cv11bioinspired14TemplateBufferIfE12getNBcolumnsEv(ptr noundef nonnull align 8 dereferenceable(64) %26)
  %28 = mul i32 %25, %27
  %29 = zext i32 %28 to i64
  %30 = getelementptr inbounds nuw float, ptr %22, i64 %29
  store ptr %30, ptr %11, align 8, !tbaa !49
  call void @llvm.lifetime.start.p0(i64 4, ptr %12) #3
  store float 0.000000e+00, ptr %12, align 4, !tbaa !26
  call void @llvm.lifetime.start.p0(i64 4, ptr %13) #3
  store i32 0, ptr %13, align 4, !tbaa !8
  br label %31

31:                                               ; preds = %47, %21
  %32 = load i32, ptr %13, align 4, !tbaa !8
  %33 = getelementptr inbounds nuw %"class.cv::bioinspired::BasicRetinaFilter", ptr %14, i32 0, i32 0
  %34 = call noundef i32 @_ZN2cv11bioinspired14TemplateBufferIfE12getNBcolumnsEv(ptr noundef nonnull align 8 dereferenceable(64) %33)
  %35 = icmp ult i32 %32, %34
  br i1 %35, label %37, label %36

36:                                               ; preds = %31
  store i32 5, ptr %10, align 4
  call void @llvm.lifetime.end.p0(i64 4, ptr %13) #3
  br label %50

37:                                               ; preds = %31
  %38 = load ptr, ptr %11, align 8, !tbaa !49
  %39 = load float, ptr %38, align 4, !tbaa !26
  %40 = getelementptr inbounds nuw %"class.cv::bioinspired::BasicRetinaFilter", ptr %14, i32 0, i32 12
  %41 = load float, ptr %40, align 4, !tbaa !46
  %42 = load float, ptr %12, align 4, !tbaa !26
  %43 = call float @llvm.fmuladd.f32(float %41, float %42, float %39)
  store float %43, ptr %12, align 4, !tbaa !26
  %44 = load float, ptr %12, align 4, !tbaa !26
  %45 = load ptr, ptr %11, align 8, !tbaa !49
  %46 = getelementptr inbounds nuw float, ptr %45, i32 1
  store ptr %46, ptr %11, align 8, !tbaa !49
  store float %44, ptr %45, align 4, !tbaa !26
  br label %47

47:                                               ; preds = %37
  %48 = load i32, ptr %13, align 4, !tbaa !8
  %49 = add i32 %48, 1
  store i32 %49, ptr %13, align 4, !tbaa !8
  br label %31, !llvm.loop !72

50:                                               ; preds = %36
  call void @llvm.lifetime.end.p0(i64 4, ptr %12) #3
  call void @llvm.lifetime.end.p0(i64 8, ptr %11) #3
  br label %51

51:                                               ; preds = %50
  %52 = load i32, ptr %9, align 4, !tbaa !8
  %53 = add i32 %52, 1
  store i32 %53, ptr %9, align 4, !tbaa !8
  br label %16, !llvm.loop !73

54:                                               ; preds = %20
  ret void
}