; Function Attrs: mustprogress nofree norecurse nosync nounwind memory(argmem: readwrite) uwtable
define hidden void @_ZN2cv11bioinspired17BasicRetinaFilter23_horizontalCausalFilterEPfjj(ptr noundef nonnull readonly align 8 captures(none) dereferenceable(168) %0, ptr noundef captures(none) %1, i32 noundef %2, i32 noundef %3) local_unnamed_addr #9 align 2 {
  %5 = icmp ult i32 %2, %3
  br i1 %5, label %.lr.ph21, label %._crit_edge22

.lr.ph21:                                         ; preds = %4
  %6 = getelementptr inbounds nuw i8, ptr %0, i64 32
  %7 = load i64, ptr %6, align 8, !tbaa !17
  %8 = trunc i64 %7 to i32
  %.not = icmp eq i32 %8, 0
  %9 = getelementptr inbounds nuw i8, ptr %0, i64 156
  br i1 %.not, label %._crit_edge22, label %.lr.ph.us.preheader

.lr.ph.us.preheader:                              ; preds = %.lr.ph21
  %10 = zext i32 %2 to i64
  %wide.trip.count = zext i32 %3 to i64
  br label %.lr.ph.us

.lr.ph.us:                                        ; preds = %.lr.ph.us.preheader, %._crit_edge.us
  %indvars.iv = phi i64 [ %10, %.lr.ph.us.preheader ], [ %indvars.iv.next, %._crit_edge.us ]
  %11 = trunc nuw i64 %indvars.iv to i32
  %12 = add i32 %2, %11
  %13 = mul i32 %12, %8
  %14 = zext i32 %13 to i64
  %15 = getelementptr inbounds nuw float, ptr %1, i64 %14
  br label %16

16:                                               ; preds = %.lr.ph.us, %16
  %.018.us = phi i32 [ 0, %.lr.ph.us ], [ %21, %16 ]
  %.01317.us = phi float [ 0.000000e+00, %.lr.ph.us ], [ %19, %16 ]
  %.01416.us = phi ptr [ %15, %.lr.ph.us ], [ %20, %16 ]
  %17 = load float, ptr %.01416.us, align 4, !tbaa !11
  %18 = load float, ptr %9, align 4, !tbaa !65
  %19 = tail call float @llvm.fmuladd.f32(float %18, float %.01317.us, float %17)
  %20 = getelementptr inbounds nuw i8, ptr %.01416.us, i64 4
  store float %19, ptr %.01416.us, align 4, !tbaa !11
  %21 = add nuw i32 %.018.us, 1
  %exitcond.not = icmp eq i32 %21, %8
  br i1 %exitcond.not, label %._crit_edge.us, label %16, !llvm.loop !109

._crit_edge.us:                                   ; preds = %16
  %indvars.iv.next = add nuw nsw i64 %indvars.iv, 1
  %exitcond25.not = icmp eq i64 %indvars.iv.next, %wide.trip.count
  br i1 %exitcond25.not, label %._crit_edge22, label %.lr.ph.us, !llvm.loop !110

._crit_edge22:                                    ; preds = %._crit_edge.us, %.lr.ph21, %4
  ret void
}